; Function Attrs: mustprogress uwtable
define void @_ZN5dtm_t3dieEj(ptr nocapture noundef nonnull align 8 dereferenceable(928) %0, i32 noundef %1) local_unnamed_addr #0 align 2 {
  %3 = icmp ult i32 %1, 5
  br i1 %3, label %4, label %8

4:                                                ; preds = %2
  %5 = zext nneg i32 %1 to i64
  %6 = getelementptr inbounds [5 x ptr], ptr @__const._ZN5dtm_t3dieEj.codes, i64 0, i64 %5
  %7 = load ptr, ptr %6, align 8
  br label %8

8:                                                ; preds = %2, %4
  %.0 = phi ptr [ %7, %4 ], [ @.str.5, %2 ]
  %9 = tail call i32 (ptr, ...) @printf(ptr noundef nonnull dereferenceable(1) @.str.6, ptr noundef nonnull @.str.7, i32 noundef 357, i32 noundef %1, ptr noundef %.0)
  %10 = tail call i32 (ptr, ...) @printf(ptr noundef nonnull dereferenceable(1) @.str.8, ptr noundef nonnull @.str.7, i32 noundef 358)
  %11 = getelementptr inbounds i8, ptr %0, i64 872
  store i64 8589934614, ptr %11, align 8
  %.sroa.22.0..sroa_idx.i.i = getelementptr inbounds i8, ptr %0, i64 880
  store i32 1792, ptr %.sroa.22.0..sroa_idx.i.i, align 8
  %12 = getelementptr inbounds i8, ptr %0, i64 728
  %13 = load ptr, ptr %12, align 8
  tail call void @_ZN9context_t9switch_toEv(ptr noundef nonnull align 8 dereferenceable(32) %13)
  ret void
}